target datalayout = "e-m:e-p270:32:32-p271:32:32-p272:64:64-i64:64-i128:128-f80:128-n8:16:32:64-S128"
target triple = "x86_64-pc-linux-gnu"

%struct.pmix_bfrop_type_info_t = type { %struct.pmix_object_t, i16, ptr, ptr, ptr, ptr, ptr }
%struct.pmix_object_t = type { %union.pthread_mutex_t, ptr, i32, %struct.pmix_tma }
%union.pthread_mutex_t = type { %struct.__pthread_mutex_s }
%struct.__pthread_mutex_s = type { i32, i32, i32, i32, i32, i16, i16, %struct.__pthread_internal_list }
%struct.__pthread_internal_list = type { ptr, ptr }
%struct.pmix_tma = type { ptr, ptr, ptr, ptr, ptr, ptr, ptr, ptr }
%struct.pmix_pointer_array_t = type { %struct.pmix_object_t, i32, i32, i32, i32, i32, ptr, ptr }
%struct.pmix_topology_t = type { ptr, ptr }
%struct.hwloc_topology_support = type { ptr, ptr, ptr, ptr }

@.str = private unnamed_addr constant [6 x i8] c"hwloc\00", align 1

; Function Attrs: inlinehint nounwind uwtable
define internal ptr @pmix_pointer_array_get_item(ptr noundef %0, i32 noundef %1) #2 {
  %3 = alloca ptr, align 8
  %4 = alloca ptr, align 8
  %5 = alloca i32, align 4
  %6 = alloca ptr, align 8
  %7 = alloca i32, align 4
  store ptr %0, ptr %4, align 8, !tbaa !7
  store i32 %1, ptr %5, align 4, !tbaa !11
  call void @llvm.lifetime.start.p0(i64 8, ptr %6) #8
  %8 = load i32, ptr %5, align 4, !tbaa !11
  %9 = icmp sgt i32 0, %8
  br i1 %9, label %16, label %10

10:                                               ; preds = %2
  %11 = load ptr, ptr %4, align 8, !tbaa !7
  %12 = getelementptr inbounds nuw %struct.pmix_pointer_array_t, ptr %11, i32 0, i32 3
  %13 = load i32, ptr %12, align 8, !tbaa !22
  %14 = load i32, ptr %5, align 4, !tbaa !11
  %15 = icmp sle i32 %13, %14
  br label %16

16:                                               ; preds = %10, %2
  %17 = phi i1 [ true, %2 ], [ %15, %10 ]
  %18 = xor i1 %17, true
  %19 = xor i1 %18, true
  %20 = zext i1 %19 to i32
  %21 = sext i32 %20 to i64
  %22 = call i64 @llvm.expect.i64(i64 %21, i64 0)
  %23 = icmp ne i64 %22, 0
  br i1 %23, label %24, label %25

24:                                               ; preds = %16
  store ptr null, ptr %3, align 8
  store i32 1, ptr %7, align 4
  br label %34

25:                                               ; preds = %16
  %26 = load ptr, ptr %4, align 8, !tbaa !7
  %27 = getelementptr inbounds nuw %struct.pmix_pointer_array_t, ptr %26, i32 0, i32 7
  %28 = load ptr, ptr %27, align 8, !tbaa !25
  %29 = load i32, ptr %5, align 4, !tbaa !11
  %30 = sext i32 %29 to i64
  %31 = getelementptr inbounds ptr, ptr %28, i64 %30
  %32 = load ptr, ptr %31, align 8, !tbaa !3
  store ptr %32, ptr %6, align 8, !tbaa !3
  %33 = load ptr, ptr %6, align 8, !tbaa !3
  store ptr %33, ptr %3, align 8
  store i32 1, ptr %7, align 4
  br label %34

34:                                               ; preds = %25, %24
  call void @llvm.lifetime.end.p0(i64 8, ptr %6) #8
  %35 = load ptr, ptr %3, align 8
  ret ptr %35
}

; Function Attrs: nounwind uwtable
define i32 @pmix_hwloc_pack_topology(ptr noundef %0, ptr noundef %1, ptr noundef %2) #0 {
  %4 = alloca i32, align 4
  %5 = alloca ptr, align 8
  %6 = alloca ptr, align 8
  %7 = alloca ptr, align 8
  %8 = alloca i32, align 4
  %9 = alloca ptr, align 8
  %10 = alloca i32, align 4
  %11 = alloca ptr, align 8
  %12 = alloca ptr, align 8
  %13 = alloca i32, align 4
  %14 = alloca ptr, align 8
  %15 = alloca ptr, align 8
  %16 = alloca ptr, align 8
  %17 = alloca ptr, align 8
  store ptr %0, ptr %5, align 8, !tbaa !3
  store ptr %1, ptr %6, align 8, !tbaa !3
  store ptr %2, ptr %7, align 8, !tbaa !7
  call void @llvm.lifetime.start.p0(i64 4, ptr %8) #8
  call void @llvm.lifetime.start.p0(i64 8, ptr %9) #8
  store ptr null, ptr %9, align 8, !tbaa !9
  call void @llvm.lifetime.start.p0(i64 4, ptr %10) #8
  call void @llvm.lifetime.start.p0(i64 8, ptr %11) #8
  %18 = load ptr, ptr %6, align 8, !tbaa !3
  %19 = icmp eq ptr null, %18
  br i1 %19, label %20, label %37

20:                                               ; preds = %3
  br label %21

21:                                               ; preds = %20
  call void @llvm.lifetime.start.p0(i64 8, ptr %12) #8
  %22 = load ptr, ptr %7, align 8, !tbaa !7
  %23 = call ptr @pmix_pointer_array_get_item(ptr noundef %22, i32 noundef 3)
  store ptr %23, ptr %12, align 8, !tbaa !3
  %24 = load ptr, ptr %12, align 8, !tbaa !3
  %25 = icmp eq ptr null, %24
  br i1 %25, label %26, label %27

26:                                               ; preds = %21
  store i32 -16, ptr %8, align 4, !tbaa !11
  br label %34

27:                                               ; preds = %21
  %28 = load ptr, ptr %12, align 8, !tbaa !3
  %29 = getelementptr inbounds nuw %struct.pmix_bfrop_type_info_t, ptr %28, i32 0, i32 3
  %30 = load ptr, ptr %29, align 8, !tbaa !13
  %31 = load ptr, ptr %7, align 8, !tbaa !7
  %32 = load ptr, ptr %5, align 8, !tbaa !3
  %33 = call i32 %30(ptr noundef %31, ptr noundef %32, ptr noundef %9, i32 noundef 1, i16 noundef zeroext 3)
  store i32 %33, ptr %8, align 4, !tbaa !11
  br label %34

34:                                               ; preds = %27, %26
  call void @llvm.lifetime.end.p0(i64 8, ptr %12) #8
  br label %35

35:                                               ; preds = %34
  br label %36

36:                                               ; preds = %35
  store i32 0, ptr %4, align 4
  store i32 1, ptr %13, align 4
  br label %155

37:                                               ; preds = %3
  %38 = load ptr, ptr %6, align 8, !tbaa !3
  %39 = getelementptr inbounds nuw %struct.pmix_topology_t, ptr %38, i32 0, i32 0
  %40 = load ptr, ptr %39, align 8, !tbaa !19
  %41 = icmp ne ptr null, %40
  br i1 %41, label %42, label %49

42:                                               ; preds = %37
  %43 = load ptr, ptr %6, align 8, !tbaa !3
  %44 = getelementptr inbounds nuw %struct.pmix_topology_t, ptr %43, i32 0, i32 0
  %45 = load ptr, ptr %44, align 8, !tbaa !19
  %46 = call i32 @strncasecmp(ptr noundef %45, ptr noundef @.str, i64 noundef 5) #9
  %47 = icmp ne i32 0, %46
  br i1 %47, label %48, label %49

48:                                               ; preds = %42
  store i32 -47, ptr %4, align 4
  store i32 1, ptr %13, align 4
  br label %155

49:                                               ; preds = %42, %37
  %50 = load ptr, ptr %6, align 8, !tbaa !3
  %51 = getelementptr inbounds nuw %struct.pmix_topology_t, ptr %50, i32 0, i32 1
  %52 = load ptr, ptr %51, align 8, !tbaa !21
  %53 = call i32 @hwloc_topology_export_xmlbuffer(ptr noundef %52, ptr noundef %9, ptr noundef %10, i64 noundef 0)
  %54 = icmp ne i32 0, %53
  br i1 %54, label %55, label %56

55:                                               ; preds = %49
  store i32 -1, ptr %4, align 4
  store i32 1, ptr %13, align 4
  br label %155

56:                                               ; preds = %49
  br label %57

57:                                               ; preds = %56
  call void @llvm.lifetime.start.p0(i64 8, ptr %14) #8
  %58 = load ptr, ptr %7, align 8, !tbaa !7
  %59 = call ptr @pmix_pointer_array_get_item(ptr noundef %58, i32 noundef 3)
  store ptr %59, ptr %14, align 8, !tbaa !3
  %60 = load ptr, ptr %14, align 8, !tbaa !3
  %61 = icmp eq ptr null, %60
  br i1 %61, label %62, label %63

62:                                               ; preds = %57
  store i32 -16, ptr %8, align 4, !tbaa !11
  br label %70

63:                                               ; preds = %57
  %64 = load ptr, ptr %14, align 8, !tbaa !3
  %65 = getelementptr inbounds nuw %struct.pmix_bfrop_type_info_t, ptr %64, i32 0, i32 3
  %66 = load ptr, ptr %65, align 8, !tbaa !13
  %67 = load ptr, ptr %7, align 8, !tbaa !7
  %68 = load ptr, ptr %5, align 8, !tbaa !3
  %69 = call i32 %66(ptr noundef %67, ptr noundef %68, ptr noundef %9, i32 noundef 1, i16 noundef zeroext 3)
  store i32 %69, ptr %8, align 4, !tbaa !11
  br label %70

70:                                               ; preds = %63, %62
  call void @llvm.lifetime.end.p0(i64 8, ptr %14) #8
  br label %71

71:                                               ; preds = %70
  br label %72

72:                                               ; preds = %71
  %73 = load ptr, ptr %9, align 8, !tbaa !9
  call void @free(ptr noundef %73) #8
  %74 = load i32, ptr %8, align 4, !tbaa !11
  %75 = icmp ne i32 0, %74
  br i1 %75, label %76, label %78

76:                                               ; preds = %72
  %77 = load i32, ptr %8, align 4, !tbaa !11
  store i32 %77, ptr %4, align 4
  store i32 1, ptr %13, align 4
  br label %155

78:                                               ; preds = %72
  %79 = load ptr, ptr %6, align 8, !tbaa !3
  %80 = getelementptr inbounds nuw %struct.pmix_topology_t, ptr %79, i32 0, i32 1
  %81 = load ptr, ptr %80, align 8, !tbaa !21
  %82 = call ptr @hwloc_topology_get_support(ptr noundef %81)
  store ptr %82, ptr %11, align 8, !tbaa !34
  br label %83

83:                                               ; preds = %78
  call void @llvm.lifetime.start.p0(i64 8, ptr %15) #8
  %84 = load ptr, ptr %7, align 8, !tbaa !7
  %85 = call ptr @pmix_pointer_array_get_item(ptr noundef %84, i32 noundef 2)
  store ptr %85, ptr %15, align 8, !tbaa !3
  %86 = load ptr, ptr %15, align 8, !tbaa !3
  %87 = icmp eq ptr null, %86
  br i1 %87, label %88, label %89

88:                                               ; preds = %83
  store i32 -16, ptr %8, align 4, !tbaa !11
  br label %99

89:                                               ; preds = %83
  %90 = load ptr, ptr %15, align 8, !tbaa !3
  %91 = getelementptr inbounds nuw %struct.pmix_bfrop_type_info_t, ptr %90, i32 0, i32 3
  %92 = load ptr, ptr %91, align 8, !tbaa !13
  %93 = load ptr, ptr %7, align 8, !tbaa !7
  %94 = load ptr, ptr %5, align 8, !tbaa !3
  %95 = load ptr, ptr %11, align 8, !tbaa !34
  %96 = getelementptr inbounds nuw %struct.hwloc_topology_support, ptr %95, i32 0, i32 0
  %97 = load ptr, ptr %96, align 8, !tbaa !36
  %98 = call i32 %92(ptr noundef %93, ptr noundef %94, ptr noundef %97, i32 noundef 6, i16 noundef zeroext 2)
  store i32 %98, ptr %8, align 4, !tbaa !11
  br label %99

99:                                               ; preds = %89, %88
  call void @llvm.lifetime.end.p0(i64 8, ptr %15) #8
  br label %100

100:                                              ; preds = %99
  br label %101

101:                                              ; preds = %100
  %102 = load i32, ptr %8, align 4, !tbaa !11
  %103 = icmp ne i32 0, %102
  br i1 %103, label %104, label %106

104:                                              ; preds = %101
  %105 = load i32, ptr %8, align 4, !tbaa !11
  store i32 %105, ptr %4, align 4
  store i32 1, ptr %13, align 4
  br label %155

106:                                              ; preds = %101
  br label %107

107:                                              ; preds = %106
  call void @llvm.lifetime.start.p0(i64 8, ptr %16) #8
  %108 = load ptr, ptr %7, align 8, !tbaa !7
  %109 = call ptr @pmix_pointer_array_get_item(ptr noundef %108, i32 noundef 2)
  store ptr %109, ptr %16, align 8, !tbaa !3
  %110 = load ptr, ptr %16, align 8, !tbaa !3
  %111 = icmp eq ptr null, %110
  br i1 %111, label %112, label %113

112:                                              ; preds = %107
  store i32 -16, ptr %8, align 4, !tbaa !11
  br label %123

113:                                              ; preds = %107
  %114 = load ptr, ptr %16, align 8, !tbaa !3
  %115 = getelementptr inbounds nuw %struct.pmix_bfrop_type_info_t, ptr %114, i32 0, i32 3
  %116 = load ptr, ptr %115, align 8, !tbaa !13
  %117 = load ptr, ptr %7, align 8, !tbaa !7
  %118 = load ptr, ptr %5, align 8, !tbaa !3
  %119 = load ptr, ptr %11, align 8, !tbaa !34
  %120 = getelementptr inbounds nuw %struct.hwloc_topology_support, ptr %119, i32 0, i32 1
  %121 = load ptr, ptr %120, align 8, !tbaa !42
  %122 = call i32 %116(ptr noundef %117, ptr noundef %118, ptr noundef %121, i32 noundef 11, i16 noundef zeroext 2)
  store i32 %122, ptr %8, align 4, !tbaa !11
  br label %123

123:                                              ; preds = %113, %112
  call void @llvm.lifetime.end.p0(i64 8, ptr %16) #8
  br label %124

124:                                              ; preds = %123
  br label %125

125:                                              ; preds = %124
  %126 = load i32, ptr %8, align 4, !tbaa !11
  %127 = icmp ne i32 0, %126
  br i1 %127, label %128, label %130

128:                                              ; preds = %125
  %129 = load i32, ptr %8, align 4, !tbaa !11
  store i32 %129, ptr %4, align 4
  store i32 1, ptr %13, align 4
  br label %155

130:                                              ; preds = %125
  br label %131

131:                                              ; preds = %130
  call void @llvm.lifetime.start.p0(i64 8, ptr %17) #8
  %132 = load ptr, ptr %7, align 8, !tbaa !7
  %133 = call ptr @pmix_pointer_array_get_item(ptr noundef %132, i32 noundef 2)
  store ptr %133, ptr %17, align 8, !tbaa !3
  %134 = load ptr, ptr %17, align 8, !tbaa !3
  %135 = icmp eq ptr null, %134
  br i1 %135, label %136, label %137

136:                                              ; preds = %131
  store i32 -16, ptr %8, align 4, !tbaa !11
  br label %147

137:                                              ; preds = %131
  %138 = load ptr, ptr %17, align 8, !tbaa !3
  %139 = getelementptr inbounds nuw %struct.pmix_bfrop_type_info_t, ptr %138, i32 0, i32 3
  %140 = load ptr, ptr %139, align 8, !tbaa !13
  %141 = load ptr, ptr %7, align 8, !tbaa !7
  %142 = load ptr, ptr %5, align 8, !tbaa !3
  %143 = load ptr, ptr %11, align 8, !tbaa !34
  %144 = getelementptr inbounds nuw %struct.hwloc_topology_support, ptr %143, i32 0, i32 2
  %145 = load ptr, ptr %144, align 8, !tbaa !43
  %146 = call i32 %140(ptr noundef %141, ptr noundef %142, ptr noundef %145, i32 noundef 15, i16 noundef zeroext 2)
  store i32 %146, ptr %8, align 4, !tbaa !11
  br label %147

147:                                              ; preds = %137, %136
  call void @llvm.lifetime.end.p0(i64 8, ptr %17) #8
  br label %148

148:                                              ; preds = %147
  br label %149

149:                                              ; preds = %148
  %150 = load i32, ptr %8, align 4, !tbaa !11
  %151 = icmp ne i32 0, %150
  br i1 %151, label %152, label %154

152:                                              ; preds = %149
  %153 = load i32, ptr %8, align 4, !tbaa !11
  store i32 %153, ptr %4, align 4
  store i32 1, ptr %13, align 4
  br label %155

154:                                              ; preds = %149
  store i32 0, ptr %4, align 4
  store i32 1, ptr %13, align 4
  br label %155

155:                                              ; preds = %154, %152, %128, %104, %76, %55, %48, %36
  call void @llvm.lifetime.end.p0(i64 8, ptr %11) #8
  call void @llvm.lifetime.end.p0(i64 4, ptr %10) #8
  call void @llvm.lifetime.end.p0(i64 8, ptr %9) #8
  call void @llvm.lifetime.end.p0(i64 4, ptr %8) #8
  %156 = load i32, ptr %4, align 4
  ret i32 %156
}