; Function Attrs: nounwind uwtable
define i32 @pmix_hwloc_pack_topology(ptr noundef %0, ptr noundef readonly captures(address_is_null) %1, ptr noundef %2) local_unnamed_addr #0 {
  %4 = alloca ptr, align 8
  %5 = alloca i32, align 4
  call void @llvm.lifetime.start.p0(i64 8, ptr nonnull %4) #7
  store ptr null, ptr %4, align 8, !tbaa !3
  call void @llvm.lifetime.start.p0(i64 4, ptr nonnull %5) #7
  %6 = icmp eq ptr %1, null
  br i1 %6, label %7, label %19

7:                                                ; preds = %3
  %8 = getelementptr inbounds nuw i8, ptr %2, i64 128
  %9 = load i32, ptr %8, align 8, !tbaa !8
  %.not.i = icmp sgt i32 %9, 3
  br i1 %.not.i, label %pmix_pointer_array_get_item.exit, label %pmix_pointer_array_get_item.exit.thread, !prof !15

pmix_pointer_array_get_item.exit:                 ; preds = %7
  %10 = getelementptr inbounds nuw i8, ptr %2, i64 152
  %11 = load ptr, ptr %10, align 8, !tbaa !16
  %12 = getelementptr inbounds nuw i8, ptr %11, i64 24
  %13 = load ptr, ptr %12, align 8, !tbaa !17
  %14 = icmp eq ptr %13, null
  br i1 %14, label %pmix_pointer_array_get_item.exit.thread, label %15

15:                                               ; preds = %pmix_pointer_array_get_item.exit
  %16 = getelementptr inbounds nuw i8, ptr %13, i64 136
  %17 = load ptr, ptr %16, align 8, !tbaa !18
  %18 = call i32 %17(ptr noundef nonnull %2, ptr noundef %0, ptr noundef nonnull %4, i32 noundef 1, i16 noundef zeroext 3) #7
  br label %pmix_pointer_array_get_item.exit.thread

19:                                               ; preds = %3
  %20 = load ptr, ptr %1, align 8, !tbaa !21
  %.not = icmp eq ptr %20, null
  br i1 %.not, label %23, label %21

21:                                               ; preds = %19
  %22 = tail call i32 @strncasecmp(ptr noundef nonnull %20, ptr noundef nonnull @.str, i64 noundef 5) #8
  %.not49 = icmp eq i32 %22, 0
  br i1 %.not49, label %23, label %pmix_pointer_array_get_item.exit.thread

23:                                               ; preds = %21, %19
  %24 = getelementptr inbounds nuw i8, ptr %1, i64 8
  %25 = load ptr, ptr %24, align 8, !tbaa !23
  %26 = call i32 @hwloc_topology_export_xmlbuffer(ptr noundef %25, ptr noundef nonnull %4, ptr noundef nonnull %5, i64 noundef 0) #7
  %.not50 = icmp eq i32 %26, 0
  br i1 %.not50, label %27, label %pmix_pointer_array_get_item.exit.thread

27:                                               ; preds = %23
  %28 = getelementptr inbounds nuw i8, ptr %2, i64 128
  %29 = load i32, ptr %28, align 8, !tbaa !8
  %.not.i55 = icmp sgt i32 %29, 3
  br i1 %.not.i55, label %pmix_pointer_array_get_item.exit57, label %.thread, !prof !15

pmix_pointer_array_get_item.exit57:               ; preds = %27
  %30 = getelementptr inbounds nuw i8, ptr %2, i64 152
  %31 = load ptr, ptr %30, align 8, !tbaa !16
  %32 = getelementptr inbounds nuw i8, ptr %31, i64 24
  %33 = load ptr, ptr %32, align 8, !tbaa !17
  %34 = icmp eq ptr %33, null
  br i1 %34, label %.thread, label %36

.thread:                                          ; preds = %pmix_pointer_array_get_item.exit57, %27
  %35 = load ptr, ptr %4, align 8, !tbaa !3
  call void @free(ptr noundef %35) #7
  br label %pmix_pointer_array_get_item.exit.thread

36:                                               ; preds = %pmix_pointer_array_get_item.exit57
  %37 = getelementptr inbounds nuw i8, ptr %33, i64 136
  %38 = load ptr, ptr %37, align 8, !tbaa !18
  %39 = call i32 %38(ptr noundef nonnull %2, ptr noundef %0, ptr noundef nonnull %4, i32 noundef 1, i16 noundef zeroext 3) #7
  %40 = load ptr, ptr %4, align 8, !tbaa !3
  call void @free(ptr noundef %40) #7
  %.not51 = icmp eq i32 %39, 0
  br i1 %.not51, label %41, label %pmix_pointer_array_get_item.exit.thread

41:                                               ; preds = %36
  %42 = load ptr, ptr %24, align 8, !tbaa !23
  %43 = call ptr @hwloc_topology_get_support(ptr noundef %42) #7
  %44 = load i32, ptr %28, align 8, !tbaa !8
  %.not.i58 = icmp sgt i32 %44, 2
  br i1 %.not.i58, label %pmix_pointer_array_get_item.exit60, label %pmix_pointer_array_get_item.exit.thread, !prof !15

pmix_pointer_array_get_item.exit60:               ; preds = %41
  %45 = load ptr, ptr %30, align 8, !tbaa !16
  %46 = getelementptr inbounds nuw i8, ptr %45, i64 16
  %47 = load ptr, ptr %46, align 8, !tbaa !17
  %48 = icmp eq ptr %47, null
  br i1 %48, label %pmix_pointer_array_get_item.exit.thread, label %49

49:                                               ; preds = %pmix_pointer_array_get_item.exit60
  %50 = getelementptr inbounds nuw i8, ptr %47, i64 136
  %51 = load ptr, ptr %50, align 8, !tbaa !18
  %52 = load ptr, ptr %43, align 8, !tbaa !30
  %53 = call i32 %51(ptr noundef nonnull %2, ptr noundef %0, ptr noundef %52, i32 noundef 6, i16 noundef zeroext 2) #7
  %.not52 = icmp eq i32 %53, 0
  br i1 %.not52, label %54, label %pmix_pointer_array_get_item.exit.thread

54:                                               ; preds = %49
  %55 = load i32, ptr %28, align 8, !tbaa !8
  %.not.i61 = icmp sgt i32 %55, 2
  br i1 %.not.i61, label %pmix_pointer_array_get_item.exit63, label %pmix_pointer_array_get_item.exit.thread, !prof !15

pmix_pointer_array_get_item.exit63:               ; preds = %54
  %56 = load ptr, ptr %30, align 8, !tbaa !16
  %57 = getelementptr inbounds nuw i8, ptr %56, i64 16
  %58 = load ptr, ptr %57, align 8, !tbaa !17
  %59 = icmp eq ptr %58, null
  br i1 %59, label %pmix_pointer_array_get_item.exit.thread, label %60

60:                                               ; preds = %pmix_pointer_array_get_item.exit63
  %61 = getelementptr inbounds nuw i8, ptr %58, i64 136
  %62 = load ptr, ptr %61, align 8, !tbaa !18
  %63 = getelementptr inbounds nuw i8, ptr %43, i64 8
  %64 = load ptr, ptr %63, align 8, !tbaa !36
  %65 = call i32 %62(ptr noundef nonnull %2, ptr noundef %0, ptr noundef %64, i32 noundef 11, i16 noundef zeroext 2) #7
  %.not53 = icmp eq i32 %65, 0
  br i1 %.not53, label %66, label %pmix_pointer_array_get_item.exit.thread

66:                                               ; preds = %60
  %67 = load i32, ptr %28, align 8, !tbaa !8
  %.not.i64 = icmp sgt i32 %67, 2
  br i1 %.not.i64, label %pmix_pointer_array_get_item.exit66, label %pmix_pointer_array_get_item.exit.thread, !prof !15

pmix_pointer_array_get_item.exit66:               ; preds = %66
  %68 = load ptr, ptr %30, align 8, !tbaa !16
  %69 = getelementptr inbounds nuw i8, ptr %68, i64 16
  %70 = load ptr, ptr %69, align 8, !tbaa !17
  %71 = icmp eq ptr %70, null
  br i1 %71, label %pmix_pointer_array_get_item.exit.thread, label %72

72:                                               ; preds = %pmix_pointer_array_get_item.exit66
  %73 = getelementptr inbounds nuw i8, ptr %70, i64 136
  %74 = load ptr, ptr %73, align 8, !tbaa !18
  %75 = getelementptr inbounds nuw i8, ptr %43, i64 16
  %76 = load ptr, ptr %75, align 8, !tbaa !37
  %77 = call i32 %74(ptr noundef nonnull %2, ptr noundef %0, ptr noundef %76, i32 noundef 15, i16 noundef zeroext 2) #7
  br label %pmix_pointer_array_get_item.exit.thread

pmix_pointer_array_get_item.exit.thread:          ; preds = %72, %pmix_pointer_array_get_item.exit66, %66, %54, %pmix_pointer_array_get_item.exit63, %41, %pmix_pointer_array_get_item.exit60, %7, %.thread, %60, %49, %36, %23, %21, %15, %pmix_pointer_array_get_item.exit
  %.0 = phi i32 [ 0, %pmix_pointer_array_get_item.exit ], [ 0, %15 ], [ -47, %21 ], [ -1, %23 ], [ %39, %36 ], [ %53, %49 ], [ %65, %60 ], [ -16, %.thread ], [ 0, %7 ], [ -16, %pmix_pointer_array_get_item.exit60 ], [ -16, %41 ], [ -16, %pmix_pointer_array_get_item.exit63 ], [ -16, %54 ], [ %77, %72 ], [ -16, %pmix_pointer_array_get_item.exit66 ], [ -16, %66 ]
  call void @llvm.lifetime.end.p0(i64 4, ptr nonnull %5) #7
  call void @llvm.lifetime.end.p0(i64 8, ptr nonnull %4) #7
  ret i32 %.0
}